; Function Attrs: nounwind uwtable
define ptr @l_Lean_Meta_substCore___lambda__9___boxed(ptr noundef readonly captures(none) %0) local_unnamed_addr #0 {
  %2 = load ptr, ptr %0, align 8, !tbaa !11
  %3 = getelementptr inbounds nuw i8, ptr %0, i64 8
  %4 = load ptr, ptr %3, align 8, !tbaa !11
  %5 = getelementptr inbounds nuw i8, ptr %0, i64 16
  %6 = load ptr, ptr %5, align 8, !tbaa !11
  %7 = getelementptr inbounds nuw i8, ptr %0, i64 24
  %8 = load ptr, ptr %7, align 8, !tbaa !11
  %9 = getelementptr inbounds nuw i8, ptr %0, i64 32
  %10 = load ptr, ptr %9, align 8, !tbaa !11
  %11 = getelementptr inbounds nuw i8, ptr %0, i64 40
  %12 = load ptr, ptr %11, align 8, !tbaa !11
  %13 = getelementptr inbounds nuw i8, ptr %0, i64 48
  %14 = load ptr, ptr %13, align 8, !tbaa !11
  %15 = getelementptr inbounds nuw i8, ptr %0, i64 56
  %16 = load ptr, ptr %15, align 8, !tbaa !11
  %17 = getelementptr inbounds nuw i8, ptr %0, i64 64
  %18 = load ptr, ptr %17, align 8, !tbaa !11
  %19 = getelementptr inbounds nuw i8, ptr %0, i64 72
  %20 = load ptr, ptr %19, align 8, !tbaa !11
  %21 = getelementptr inbounds nuw i8, ptr %0, i64 80
  %22 = load ptr, ptr %21, align 8, !tbaa !11
  %23 = getelementptr inbounds nuw i8, ptr %0, i64 88
  %24 = load ptr, ptr %23, align 8, !tbaa !11
  %25 = getelementptr inbounds nuw i8, ptr %0, i64 96
  %26 = load ptr, ptr %25, align 8, !tbaa !11
  %27 = getelementptr inbounds nuw i8, ptr %0, i64 104
  %28 = load ptr, ptr %27, align 8, !tbaa !11
  %29 = getelementptr inbounds nuw i8, ptr %0, i64 112
  %30 = load ptr, ptr %29, align 8, !tbaa !11
  %31 = getelementptr inbounds nuw i8, ptr %0, i64 120
  %32 = load ptr, ptr %31, align 8, !tbaa !11
  %33 = getelementptr inbounds nuw i8, ptr %0, i64 128
  %34 = load ptr, ptr %33, align 8, !tbaa !11
  %35 = getelementptr inbounds nuw i8, ptr %0, i64 136
  %36 = load ptr, ptr %35, align 8, !tbaa !11
  %37 = getelementptr inbounds nuw i8, ptr %0, i64 144
  %38 = load ptr, ptr %37, align 8, !tbaa !11
  %39 = getelementptr inbounds nuw i8, ptr %0, i64 152
  %40 = load ptr, ptr %39, align 8, !tbaa !11
  %41 = getelementptr inbounds nuw i8, ptr %0, i64 160
  %42 = load ptr, ptr %41, align 8, !tbaa !11
  %43 = getelementptr inbounds nuw i8, ptr %0, i64 168
  %44 = load ptr, ptr %43, align 8, !tbaa !11
  %45 = ptrtoint ptr %16 to i64
  %46 = lshr i64 %45, 1
  %47 = trunc i64 %46 to i8
  %48 = and i64 %45, 1
  %.not = icmp eq i64 %48, 0
  br i1 %.not, label %49, label %lean_dec.exit47

49:                                               ; preds = %1
  %50 = load i32, ptr %16, align 4, !tbaa !5
  %51 = icmp sgt i32 %50, 1
  br i1 %51, label %52, label %54, !prof !10

52:                                               ; preds = %49
  %53 = add nsw i32 %50, -1
  store i32 %53, ptr %16, align 4, !tbaa !5
  br label %lean_dec.exit47

54:                                               ; preds = %49
  %.not.i = icmp eq i32 %50, 0
  br i1 %.not.i, label %lean_dec.exit47, label %55

55:                                               ; preds = %54
  tail call void @lean_dec_ref_cold(ptr noundef nonnull %16) #4
  br label %lean_dec.exit47

lean_dec.exit47:                                  ; preds = %55, %54, %52, %1
  %56 = tail call ptr @l_Lean_Meta_substCore___lambda__9(ptr noundef %2, ptr noundef %4, ptr noundef %6, ptr noundef %8, ptr noundef %10, ptr noundef %12, ptr noundef %14, i8 noundef zeroext %47, ptr noundef %18, ptr noundef %20, ptr noundef %22, ptr noundef %24, ptr noundef %26, ptr noundef %28, ptr noundef %30, ptr noundef %32, ptr noundef %34, ptr noundef %36, ptr noundef %38, ptr noundef %40, ptr noundef %42, ptr noundef %44)
  %57 = ptrtoint ptr %8 to i64
  %58 = and i64 %57, 1
  %.not50 = icmp eq i64 %58, 0
  br i1 %.not50, label %59, label %lean_dec.exit

59:                                               ; preds = %lean_dec.exit47
  %60 = load i32, ptr %8, align 4, !tbaa !5
  %61 = icmp sgt i32 %60, 1
  br i1 %61, label %62, label %64, !prof !10

62:                                               ; preds = %59
  %63 = add nsw i32 %60, -1
  store i32 %63, ptr %8, align 4, !tbaa !5
  br label %lean_dec.exit

64:                                               ; preds = %59
  %.not.i48 = icmp eq i32 %60, 0
  br i1 %.not.i48, label %lean_dec.exit, label %65

65:                                               ; preds = %64
  tail call void @lean_dec_ref_cold(ptr noundef nonnull %8) #4
  br label %lean_dec.exit

lean_dec.exit:                                    ; preds = %65, %64, %62, %lean_dec.exit47
  ret ptr %56
}